; Function Attrs: mustprogress uwtable
define hidden i64 @_ZN2cv8ximgproc11DTFilterCPU20getWorkRangeByThreadEiRKNS_5RangeEi(i32 noundef %0, ptr noundef nonnull readonly align 4 captures(none) dereferenceable(8) %1, i32 noundef %2) local_unnamed_addr #3 align 2 {
  %4 = icmp slt i32 %2, 1
  br i1 %4, label %5, label %_ZN2cv8ximgproc11DTFilterCPU20getWorkRangeByThreadERKNS_5RangeES4_i.exit

5:                                                ; preds = %3
  %6 = tail call noundef i32 @_ZN2cv13getNumThreadsEv()
  br label %_ZN2cv8ximgproc11DTFilterCPU20getWorkRangeByThreadERKNS_5RangeES4_i.exit

_ZN2cv8ximgproc11DTFilterCPU20getWorkRangeByThreadERKNS_5RangeES4_i.exit: ; preds = %3, %5
  %.0.i = phi i32 [ %6, %5 ], [ %2, %3 ]
  %7 = sdiv i32 %0, %.0.i
  %8 = load i32, ptr %1, align 4, !tbaa !198
  %9 = getelementptr inbounds nuw i8, ptr %1, i64 4
  %10 = load i32, ptr %9, align 4, !tbaa !200
  %.not.i = icmp slt i32 %10, %.0.i
  %11 = mul nsw i32 %10, %7
  %spec.select.i = select i1 %.not.i, i32 %11, i32 %0
  %12 = mul nsw i32 %8, %7
  %.sroa.2.0.insert.ext.i = zext i32 %spec.select.i to i64
  %.sroa.2.0.insert.shift.i = shl nuw i64 %.sroa.2.0.insert.ext.i, 32
  %.sroa.0.0.insert.ext.i = zext i32 %12 to i64
  %.sroa.0.0.insert.insert.i = or disjoint i64 %.sroa.2.0.insert.shift.i, %.sroa.0.0.insert.ext.i
  ret i64 %.sroa.0.0.insert.insert.i
}